target datalayout = "e-m:e-p270:32:32-p271:32:32-p272:64:64-i64:64-i128:128-f80:128-n8:16:32:64-S128"
target triple = "x86_64-pc-linux-gnu"

%union.pthread_mutex_t = type { %struct.__pthread_mutex_s }
%struct.__pthread_mutex_s = type { i32, i32, i32, i32, i32, i16, i16, %struct.__pthread_internal_list }
%struct.__pthread_internal_list = type { ptr, ptr }
%struct.pmix_tma = type { ptr, ptr, ptr, ptr, ptr, ptr, ptr, ptr }
%struct.pmix_mca_base_var_enum_t = type { %struct.pmix_object_t, i8, ptr, ptr, ptr, ptr, ptr, ptr, i32, ptr }
%struct.pmix_object_t = type { %union.pthread_mutex_t, ptr, i32, %struct.pmix_tma }
%struct.pmix_mca_base_var_enum_flag_t = type { %struct.pmix_mca_base_var_enum_t, ptr }
%struct.pmix_mca_base_var_enum_value_flag_t = type { i32, ptr, i32 }

@.str.17 = private unnamed_addr constant [1 x i8] zeroinitializer, align 1
@.str.29 = private unnamed_addr constant [7 x i8] c"%s%s%s\00", align 1
@.str.30 = private unnamed_addr constant [2 x i8] c",\00", align 1

; Function Attrs: nounwind uwtable
define internal i32 @enum_string_from_value_flag(ptr noundef %0, i32 noundef %1, ptr noundef %2) #0 {
  %4 = alloca i32, align 4
  %5 = alloca ptr, align 8
  %6 = alloca i32, align 4
  %7 = alloca ptr, align 8
  %8 = alloca ptr, align 8
  %9 = alloca i32, align 4
  %10 = alloca i32, align 4
  %11 = alloca i32, align 4
  %12 = alloca ptr, align 8
  %13 = alloca ptr, align 8
  %14 = alloca i32, align 4
  %15 = alloca i32, align 4
  store ptr %0, ptr %5, align 8, !tbaa !3
  store i32 %1, ptr %6, align 4, !tbaa !24
  store ptr %2, ptr %7, align 8, !tbaa !47
  call void @llvm.lifetime.start.p0(i64 8, ptr %8) #13
  %16 = load ptr, ptr %5, align 8, !tbaa !3
  store ptr %16, ptr %8, align 8, !tbaa !30
  call void @llvm.lifetime.start.p0(i64 4, ptr %9) #13
  call void @llvm.lifetime.start.p0(i64 4, ptr %10) #13
  call void @llvm.lifetime.start.p0(i64 4, ptr %11) #13
  call void @llvm.lifetime.start.p0(i64 8, ptr %12) #13
  store ptr null, ptr %12, align 8, !tbaa !49
  call void @llvm.lifetime.start.p0(i64 8, ptr %13) #13
  %17 = load ptr, ptr %5, align 8, !tbaa !3
  %18 = getelementptr inbounds nuw %struct.pmix_mca_base_var_enum_t, ptr %17, i32 0, i32 3
  %19 = load ptr, ptr %18, align 8, !tbaa !17
  %20 = load ptr, ptr %5, align 8, !tbaa !3
  %21 = call i32 %19(ptr noundef %20, ptr noundef %9)
  store i32 %21, ptr %10, align 4, !tbaa !24
  %22 = load i32, ptr %10, align 4, !tbaa !24
  %23 = icmp ne i32 0, %22
  br i1 %23, label %24, label %26

24:                                               ; preds = %3
  %25 = load i32, ptr %10, align 4, !tbaa !24
  store i32 %25, ptr %4, align 4
  store i32 1, ptr %14, align 4
  br label %123

26:                                               ; preds = %3
  %27 = load i32, ptr %6, align 4, !tbaa !24
  store i32 %27, ptr %11, align 4, !tbaa !24
  call void @llvm.lifetime.start.p0(i64 4, ptr %15) #13
  store i32 0, ptr %15, align 4, !tbaa !24
  br label %28

28:                                               ; preds = %97, %26
  %29 = load i32, ptr %15, align 4, !tbaa !24
  %30 = load i32, ptr %9, align 4, !tbaa !24
  %31 = icmp slt i32 %29, %30
  br i1 %31, label %33, label %32

32:                                               ; preds = %28
  store i32 2, ptr %14, align 4
  br label %100

33:                                               ; preds = %28
  %34 = load ptr, ptr %8, align 8, !tbaa !30
  %35 = getelementptr inbounds nuw %struct.pmix_mca_base_var_enum_flag_t, ptr %34, i32 0, i32 1
  %36 = load ptr, ptr %35, align 8, !tbaa !32
  %37 = load i32, ptr %15, align 4, !tbaa !24
  %38 = sext i32 %37 to i64
  %39 = getelementptr inbounds %struct.pmix_mca_base_var_enum_value_flag_t, ptr %36, i64 %38
  %40 = getelementptr inbounds nuw %struct.pmix_mca_base_var_enum_value_flag_t, ptr %39, i32 0, i32 0
  %41 = load i32, ptr %40, align 8, !tbaa !87
  %42 = load i32, ptr %11, align 4, !tbaa !24
  %43 = and i32 %41, %42
  %44 = icmp ne i32 %43, 0
  br i1 %44, label %46, label %45

45:                                               ; preds = %33
  br label %97

46:                                               ; preds = %33
  %47 = load ptr, ptr %12, align 8, !tbaa !49
  store ptr %47, ptr %13, align 8, !tbaa !49
  %48 = load ptr, ptr %13, align 8, !tbaa !49
  %49 = icmp ne ptr %48, null
  br i1 %49, label %50, label %52

50:                                               ; preds = %46
  %51 = load ptr, ptr %13, align 8, !tbaa !49
  br label %53

52:                                               ; preds = %46
  br label %53

53:                                               ; preds = %52, %50
  %54 = phi ptr [ %51, %50 ], [ @.str.17, %52 ]
  %55 = load ptr, ptr %13, align 8, !tbaa !49
  %56 = icmp ne ptr %55, null
  %57 = select i1 %56, ptr @.str.30, ptr @.str.17
  %58 = load ptr, ptr %8, align 8, !tbaa !30
  %59 = getelementptr inbounds nuw %struct.pmix_mca_base_var_enum_flag_t, ptr %58, i32 0, i32 1
  %60 = load ptr, ptr %59, align 8, !tbaa !32
  %61 = load i32, ptr %15, align 4, !tbaa !24
  %62 = sext i32 %61 to i64
  %63 = getelementptr inbounds %struct.pmix_mca_base_var_enum_value_flag_t, ptr %60, i64 %62
  %64 = getelementptr inbounds nuw %struct.pmix_mca_base_var_enum_value_flag_t, ptr %63, i32 0, i32 1
  %65 = load ptr, ptr %64, align 8, !tbaa !42
  %66 = call i32 (ptr, ptr, ...) @asprintf(ptr noundef %12, ptr noundef @.str.29, ptr noundef %54, ptr noundef %57, ptr noundef %65) #13
  store i32 %66, ptr %10, align 4, !tbaa !24
  %67 = load ptr, ptr %13, align 8, !tbaa !49
  call void @free(ptr noundef %67) #13
  %68 = load i32, ptr %10, align 4, !tbaa !24
  %69 = icmp sgt i32 0, %68
  br i1 %69, label %70, label %71

70:                                               ; preds = %53
  store i32 -29, ptr %4, align 4
  store i32 1, ptr %14, align 4
  br label %100

71:                                               ; preds = %53
  %72 = load i32, ptr %6, align 4, !tbaa !24
  %73 = load ptr, ptr %8, align 8, !tbaa !30
  %74 = getelementptr inbounds nuw %struct.pmix_mca_base_var_enum_flag_t, ptr %73, i32 0, i32 1
  %75 = load ptr, ptr %74, align 8, !tbaa !32
  %76 = load i32, ptr %15, align 4, !tbaa !24
  %77 = sext i32 %76 to i64
  %78 = getelementptr inbounds %struct.pmix_mca_base_var_enum_value_flag_t, ptr %75, i64 %77
  %79 = getelementptr inbounds nuw %struct.pmix_mca_base_var_enum_value_flag_t, ptr %78, i32 0, i32 2
  %80 = load i32, ptr %79, align 8, !tbaa !88
  %81 = and i32 %72, %80
  %82 = icmp ne i32 %81, 0
  br i1 %82, label %83, label %85

83:                                               ; preds = %71
  %84 = load ptr, ptr %12, align 8, !tbaa !49
  call void @free(ptr noundef %84) #13
  store i32 -27, ptr %4, align 4
  store i32 1, ptr %14, align 4
  br label %100

85:                                               ; preds = %71
  %86 = load ptr, ptr %8, align 8, !tbaa !30
  %87 = getelementptr inbounds nuw %struct.pmix_mca_base_var_enum_flag_t, ptr %86, i32 0, i32 1
  %88 = load ptr, ptr %87, align 8, !tbaa !32
  %89 = load i32, ptr %15, align 4, !tbaa !24
  %90 = sext i32 %89 to i64
  %91 = getelementptr inbounds %struct.pmix_mca_base_var_enum_value_flag_t, ptr %88, i64 %90
  %92 = getelementptr inbounds nuw %struct.pmix_mca_base_var_enum_value_flag_t, ptr %91, i32 0, i32 0
  %93 = load i32, ptr %92, align 8, !tbaa !87
  %94 = xor i32 %93, -1
  %95 = load i32, ptr %11, align 4, !tbaa !24
  %96 = and i32 %95, %94
  store i32 %96, ptr %11, align 4, !tbaa !24
  br label %97

97:                                               ; preds = %85, %45
  %98 = load i32, ptr %15, align 4, !tbaa !24
  %99 = add nsw i32 %98, 1
  store i32 %99, ptr %15, align 4, !tbaa !24
  br label %28, !llvm.loop !102

100:                                              ; preds = %83, %70, %32
  call void @llvm.lifetime.end.p0(i64 4, ptr %15) #13
  %101 = load i32, ptr %14, align 4
  switch i32 %101, label %123 [
    i32 2, label %102
  ]

102:                                              ; preds = %100
  %103 = load i32, ptr %11, align 4, !tbaa !24
  %104 = icmp ne i32 %103, 0
  br i1 %104, label %105, label %107

105:                                              ; preds = %102
  %106 = load ptr, ptr %12, align 8, !tbaa !49
  call void @free(ptr noundef %106) #13
  store i32 -65, ptr %4, align 4
  store i32 1, ptr %14, align 4
  br label %123

107:                                              ; preds = %102
  %108 = load ptr, ptr %7, align 8, !tbaa !47
  %109 = icmp ne ptr %108, null
  br i1 %109, label %110, label %120

110:                                              ; preds = %107
  %111 = load ptr, ptr %12, align 8, !tbaa !49
  %112 = icmp ne ptr %111, null
  br i1 %112, label %113, label %115

113:                                              ; preds = %110
  %114 = load ptr, ptr %12, align 8, !tbaa !49
  br label %117

115:                                              ; preds = %110
  %116 = call noalias ptr @strdup(ptr noundef @.str.17) #13
  br label %117

117:                                              ; preds = %115, %113
  %118 = phi ptr [ %114, %113 ], [ %116, %115 ]
  %119 = load ptr, ptr %7, align 8, !tbaa !47
  store ptr %118, ptr %119, align 8, !tbaa !49
  br label %122

120:                                              ; preds = %107
  %121 = load ptr, ptr %12, align 8, !tbaa !49
  call void @free(ptr noundef %121) #13
  br label %122

122:                                              ; preds = %120, %117
  store i32 0, ptr %4, align 4
  store i32 1, ptr %14, align 4
  br label %123

123:                                              ; preds = %122, %105, %100, %24
  call void @llvm.lifetime.end.p0(i64 8, ptr %13) #13
  call void @llvm.lifetime.end.p0(i64 8, ptr %12) #13
  call void @llvm.lifetime.end.p0(i64 4, ptr %11) #13
  call void @llvm.lifetime.end.p0(i64 4, ptr %10) #13
  call void @llvm.lifetime.end.p0(i64 4, ptr %9) #13
  call void @llvm.lifetime.end.p0(i64 8, ptr %8) #13
  %124 = load i32, ptr %4, align 4
  ret i32 %124
}