; Function Attrs: nounwind uwtable
define internal i32 @enum_string_from_value_flag(ptr noundef %0, i32 noundef %1, ptr noundef writeonly captures(address_is_null) %2) #1 {
  %4 = alloca i32, align 4
  %5 = alloca ptr, align 8
  call void @llvm.lifetime.start.p0(i64 4, ptr nonnull %4) #21
  call void @llvm.lifetime.start.p0(i64 8, ptr nonnull %5) #21
  store ptr null, ptr %5, align 8, !tbaa !41
  %6 = getelementptr inbounds nuw i8, ptr %0, i64 136
  %7 = load ptr, ptr %6, align 8, !tbaa !15
  %8 = call i32 %7(ptr noundef %0, ptr noundef nonnull %4) #21
  %.not = icmp eq i32 %8, 0
  br i1 %.not, label %.preheader, label %.thread

.preheader:                                       ; preds = %3
  %9 = load i32, ptr %4, align 4, !tbaa !40
  %.not3845 = icmp sgt i32 %9, 0
  br i1 %.not3845, label %.lr.ph, label %._crit_edge

.lr.ph:                                           ; preds = %.preheader
  %10 = getelementptr inbounds nuw i8, ptr %0, i64 192
  %.pre = load ptr, ptr %10, align 8, !tbaa !27
  br label %11

11:                                               ; preds = %.lr.ph, %37
  %12 = phi i32 [ %9, %.lr.ph ], [ %38, %37 ]
  %13 = phi ptr [ %.pre, %.lr.ph ], [ %39, %37 ]
  %indvars.iv = phi i64 [ 0, %.lr.ph ], [ %indvars.iv.next, %37 ]
  %.03046 = phi i32 [ %1, %.lr.ph ], [ %.131, %37 ]
  %14 = getelementptr inbounds nuw %struct.pmix_mca_base_var_enum_value_flag_t, ptr %13, i64 %indvars.iv
  %15 = load i32, ptr %14, align 8, !tbaa !67
  %16 = and i32 %15, %.03046
  %.not35 = icmp eq i32 %16, 0
  br i1 %.not35, label %37, label %17

17:                                               ; preds = %11
  %18 = load ptr, ptr %5, align 8, !tbaa !41
  %.not36 = icmp eq ptr %18, null
  %19 = select i1 %.not36, ptr @.str.17, ptr %18
  %20 = select i1 %.not36, ptr @.str.17, ptr @.str.30
  %21 = getelementptr inbounds nuw i8, ptr %14, i64 8
  %22 = load ptr, ptr %21, align 8, !tbaa !37
  %23 = call i32 (ptr, ptr, ...) @asprintf(ptr noundef nonnull %5, ptr noundef nonnull @.str.29, ptr noundef nonnull %19, ptr noundef nonnull %20, ptr noundef %22) #21
  call void @free(ptr noundef %18) #21
  %24 = icmp slt i32 %23, 0
  br i1 %24, label %.thread, label %25

25:                                               ; preds = %17
  %26 = load ptr, ptr %10, align 8, !tbaa !27
  %27 = getelementptr inbounds nuw %struct.pmix_mca_base_var_enum_value_flag_t, ptr %26, i64 %indvars.iv
  %28 = getelementptr inbounds nuw i8, ptr %27, i64 16
  %29 = load i32, ptr %28, align 8, !tbaa !68
  %30 = and i32 %29, %1
  %.not37 = icmp eq i32 %30, 0
  br i1 %.not37, label %33, label %31

31:                                               ; preds = %25
  %32 = load ptr, ptr %5, align 8, !tbaa !41
  call void @free(ptr noundef %32) #21
  br label %.thread

33:                                               ; preds = %25
  %34 = load i32, ptr %27, align 8, !tbaa !67
  %35 = xor i32 %34, -1
  %36 = and i32 %.03046, %35
  %.pre49 = load i32, ptr %4, align 4, !tbaa !40
  br label %37

37:                                               ; preds = %11, %33
  %38 = phi i32 [ %.pre49, %33 ], [ %12, %11 ]
  %39 = phi ptr [ %26, %33 ], [ %13, %11 ]
  %.131 = phi i32 [ %36, %33 ], [ %.03046, %11 ]
  %indvars.iv.next = add nuw nsw i64 %indvars.iv, 1
  %40 = sext i32 %38 to i64
  %.not38 = icmp slt i64 %indvars.iv.next, %40
  br i1 %.not38, label %11, label %._crit_edge, !llvm.loop !73

._crit_edge:                                      ; preds = %37, %.preheader
  %.030.lcssa = phi i32 [ %1, %.preheader ], [ %.131, %37 ]
  %.not39 = icmp eq i32 %.030.lcssa, 0
  br i1 %.not39, label %43, label %41

41:                                               ; preds = %._crit_edge
  %42 = load ptr, ptr %5, align 8, !tbaa !41
  call void @free(ptr noundef %42) #21
  br label %.thread

43:                                               ; preds = %._crit_edge
  %.not40 = icmp eq ptr %2, null
  %44 = load ptr, ptr %5, align 8, !tbaa !41
  br i1 %.not40, label %50, label %45

45:                                               ; preds = %43
  %.not41 = icmp eq ptr %44, null
  br i1 %.not41, label %46, label %48

46:                                               ; preds = %45
  %47 = call noalias dereferenceable_or_null(1) ptr @strdup(ptr noundef nonnull @.str.17) #21
  br label %48

48:                                               ; preds = %45, %46
  %49 = phi ptr [ %47, %46 ], [ %44, %45 ]
  store ptr %49, ptr %2, align 8, !tbaa !41
  br label %.thread

50:                                               ; preds = %43
  call void @free(ptr noundef %44) #21
  br label %.thread

.thread:                                          ; preds = %17, %31, %48, %50, %3, %41
  %.029 = phi i32 [ -65, %41 ], [ %8, %3 ], [ 0, %50 ], [ 0, %48 ], [ -27, %31 ], [ -29, %17 ]
  call void @llvm.lifetime.end.p0(i64 8, ptr nonnull %5) #21
  call void @llvm.lifetime.end.p0(i64 4, ptr nonnull %4) #21
  ret i32 %.029
}